target datalayout = "e-m:e-p270:32:32-p271:32:32-p272:64:64-i64:64-i128:128-f80:128-n8:16:32:64-S128"
target triple = "x86_64-pc-linux-gnu"

%struct.sockaddr = type { i16, [14 x i8] }

; Function Attrs: nounwind uwtable
define i32 @BIO_ADDR_make(ptr noundef %0, ptr noundef %1) #0 {
  %3 = alloca i32, align 4
  %4 = alloca ptr, align 8
  %5 = alloca ptr, align 8
  store ptr %0, ptr %4, align 8, !tbaa !3
  store ptr %1, ptr %5, align 8, !tbaa !9
  %6 = load ptr, ptr %5, align 8, !tbaa !9
  %7 = getelementptr inbounds nuw %struct.sockaddr, ptr %6, i32 0, i32 0
  %8 = load i16, ptr %7, align 2, !tbaa !11
  %9 = zext i16 %8 to i32
  %10 = icmp eq i32 %9, 2
  br i1 %10, label %11, label %14

11:                                               ; preds = %2
  %12 = load ptr, ptr %4, align 8, !tbaa !3
  %13 = load ptr, ptr %5, align 8, !tbaa !9
  call void @llvm.memcpy.p0.p0.i64(ptr align 4 %12, ptr align 2 %13, i64 16, i1 false)
  store i32 1, ptr %3, align 4
  br label %33

14:                                               ; preds = %2
  %15 = load ptr, ptr %5, align 8, !tbaa !9
  %16 = getelementptr inbounds nuw %struct.sockaddr, ptr %15, i32 0, i32 0
  %17 = load i16, ptr %16, align 2, !tbaa !11
  %18 = zext i16 %17 to i32
  %19 = icmp eq i32 %18, 10
  br i1 %19, label %20, label %23

20:                                               ; preds = %14
  %21 = load ptr, ptr %4, align 8, !tbaa !3
  %22 = load ptr, ptr %5, align 8, !tbaa !9
  call void @llvm.memcpy.p0.p0.i64(ptr align 4 %21, ptr align 2 %22, i64 28, i1 false)
  store i32 1, ptr %3, align 4
  br label %33

23:                                               ; preds = %14
  %24 = load ptr, ptr %5, align 8, !tbaa !9
  %25 = getelementptr inbounds nuw %struct.sockaddr, ptr %24, i32 0, i32 0
  %26 = load i16, ptr %25, align 2, !tbaa !11
  %27 = zext i16 %26 to i32
  %28 = icmp eq i32 %27, 1
  br i1 %28, label %29, label %32

29:                                               ; preds = %23
  %30 = load ptr, ptr %4, align 8, !tbaa !3
  %31 = load ptr, ptr %5, align 8, !tbaa !9
  call void @llvm.memcpy.p0.p0.i64(ptr align 4 %30, ptr align 2 %31, i64 110, i1 false)
  store i32 1, ptr %3, align 4
  br label %33

32:                                               ; preds = %23
  store i32 0, ptr %3, align 4
  br label %33

33:                                               ; preds = %32, %29, %20, %11
  %34 = load i32, ptr %3, align 4
  ret i32 %34
}