; Function Attrs: mustprogress nofree norecurse nosync nounwind willreturn memory(argmem: readwrite) uwtable
define range(i32 0, 2) i32 @BIO_ADDR_make(ptr noundef writeonly captures(none) %0, ptr noundef readonly captures(none) %1) local_unnamed_addr #3 {
  %3 = load i16, ptr %1, align 2, !tbaa !6
  switch i16 %3, label %7 [
    i16 2, label %4
    i16 10, label %5
    i16 1, label %6
  ]

4:                                                ; preds = %2
  tail call void @llvm.memcpy.p0.p0.i64(ptr noundef nonnull align 4 dereferenceable(16) %0, ptr noundef nonnull align 2 dereferenceable(16) %1, i64 16, i1 false)
  br label %7

5:                                                ; preds = %2
  tail call void @llvm.memcpy.p0.p0.i64(ptr noundef nonnull align 4 dereferenceable(28) %0, ptr noundef nonnull align 2 dereferenceable(28) %1, i64 28, i1 false)
  br label %7

6:                                                ; preds = %2
  tail call void @llvm.memcpy.p0.p0.i64(ptr noundef nonnull align 4 dereferenceable(110) %0, ptr noundef nonnull align 2 dereferenceable(110) %1, i64 110, i1 false)
  br label %7

7:                                                ; preds = %2, %6, %5, %4
  %.0 = phi i32 [ 1, %4 ], [ 1, %5 ], [ 1, %6 ], [ 0, %2 ]
  ret i32 %.0
}